target datalayout = "e-m:e-p270:32:32-p271:32:32-p272:64:64-i64:64-i128:128-f80:128-n8:16:32:64-S128"
target triple = "x86_64-pc-linux-gnu"

%struct.H5O_loc_t = type { ptr, i64, i8 }
%struct.H5A_t = type { %struct.H5O_shared_t, %struct.H5O_loc_t, i8, %struct.H5G_name_t, ptr }
%struct.H5O_shared_t = type { i32, ptr, i32, %union.anon }
%union.anon = type { %struct.H5O_mesg_loc_t }
%struct.H5O_mesg_loc_t = type { i32, i64 }
%struct.H5G_name_t = type { ptr, ptr, i32 }
%struct.H5A_shared_t = type { i8, ptr, i32, ptr, i64, ptr, i64, ptr, i64, i32, i32 }
%struct.H5O_mesg_t = type { ptr, i8, i8, i32, i32, ptr, ptr, i64 }
%struct.H5O_iter_wrt_t = type { ptr, ptr, i8 }

@.str = private unnamed_addr constant [106 x i8] c"generated/home/dtcxzyw/WorkSpace/Projects/compilers/llvm-opt-benchmark/bench/hdf5/hdf5/src/H5Oattribute.c\00", align 1
@H5E_ATTR_g = external global i64, align 8
@H5E_CANTUPDATE_g = external global i64, align 8
@H5E_CANTPROTECT_g = external global i64, align 8
@H5E_CANTUNPROTECT_g = external global i64, align 8
@__func__.H5O__attr_write_cb = private unnamed_addr constant [19 x i8] c"H5O__attr_write_cb\00", align 1
@.str.62 = private unnamed_addr constant [35 x i8] c"unable to load object header chunk\00", align 1
@.str.63 = private unnamed_addr constant [40 x i8] c"unable to unprotect object header chunk\00", align 1
@.str.64 = private unnamed_addr constant [45 x i8] c"unable to update attribute in shared storage\00", align 1

; Function Attrs: nounwind uwtable
define internal i32 @H5O__attr_write_cb(ptr noundef %0, ptr noundef %1, i32 noundef %2, ptr noundef %3, ptr noundef %4) #0 {
  %6 = alloca ptr, align 8
  %7 = alloca ptr, align 8
  %8 = alloca i32, align 4
  %9 = alloca ptr, align 8
  %10 = alloca ptr, align 8
  %11 = alloca ptr, align 8
  %12 = alloca ptr, align 8
  %13 = alloca i8, align 1
  %14 = alloca i32, align 4
  %15 = alloca i8, align 1
  store ptr %0, ptr %6, align 8
  store ptr %1, ptr %7, align 8
  store i32 %2, ptr %8, align 4
  store ptr %3, ptr %9, align 8
  store ptr %4, ptr %10, align 8
  %16 = load ptr, ptr %10, align 8
  store ptr %16, ptr %11, align 8
  store ptr null, ptr %12, align 8
  store i8 0, ptr %13, align 1
  store i32 0, ptr %14, align 4
  store i8 0, ptr %15, align 1
  %17 = load ptr, ptr %7, align 8
  %18 = getelementptr inbounds %struct.H5O_mesg_t, ptr %17, i32 0, i32 5
  %19 = load ptr, ptr %18, align 8
  %20 = getelementptr inbounds %struct.H5A_t, ptr %19, i32 0, i32 4
  %21 = load ptr, ptr %20, align 8
  %22 = getelementptr inbounds %struct.H5A_shared_t, ptr %21, i32 0, i32 1
  %23 = load ptr, ptr %22, align 8
  %24 = load ptr, ptr %11, align 8
  %25 = getelementptr inbounds %struct.H5O_iter_wrt_t, ptr %24, i32 0, i32 1
  %26 = load ptr, ptr %25, align 8
  %27 = getelementptr inbounds %struct.H5A_t, ptr %26, i32 0, i32 4
  %28 = load ptr, ptr %27, align 8
  %29 = getelementptr inbounds %struct.H5A_shared_t, ptr %28, i32 0, i32 1
  %30 = load ptr, ptr %29, align 8
  %31 = call i32 @strcmp(ptr noundef %23, ptr noundef %30) #8
  %32 = icmp eq i32 0, %31
  br i1 %32, label %33, label %158

33:                                               ; preds = %5
  %34 = load ptr, ptr %11, align 8
  %35 = getelementptr inbounds %struct.H5O_iter_wrt_t, ptr %34, i32 0, i32 0
  %36 = load ptr, ptr %35, align 8
  %37 = load ptr, ptr %6, align 8
  %38 = load ptr, ptr %7, align 8
  %39 = getelementptr inbounds %struct.H5O_mesg_t, ptr %38, i32 0, i32 4
  %40 = load i32, ptr %39, align 8
  %41 = call ptr @H5O__chunk_protect(ptr noundef %36, ptr noundef %37, i32 noundef %40)
  store ptr %41, ptr %12, align 8
  %42 = icmp eq ptr null, %41
  br i1 %42, label %43, label %58

43:                                               ; preds = %33
  br label %44

44:                                               ; preds = %43
  br label %45

45:                                               ; preds = %44
  br label %46

46:                                               ; preds = %45
  %47 = load i64, ptr @H5E_ATTR_g, align 8
  %48 = load i64, ptr @H5E_CANTPROTECT_g, align 8
  %49 = call i32 (ptr, ptr, i32, i64, i64, ptr, ...) @H5E_printf_stack(ptr noundef @.str, ptr noundef @__func__.H5O__attr_write_cb, i32 noundef 797, i64 noundef %47, i64 noundef %48, ptr noundef @.str.62)
  br label %50

50:                                               ; preds = %46
  store i8 1, ptr %15, align 1
  %51 = load i8, ptr %15, align 1
  %52 = trunc i8 %51 to i1
  %53 = zext i1 %52 to i8
  store i8 %53, ptr %15, align 1
  br label %54

54:                                               ; preds = %50
  br label %55

55:                                               ; preds = %54
  store i32 -1, ptr %14, align 4
  br label %159

56:                                               ; No predecessors!
  br label %57

57:                                               ; preds = %56
  br label %58

58:                                               ; preds = %57, %33
  %59 = load ptr, ptr %7, align 8
  %60 = getelementptr inbounds %struct.H5O_mesg_t, ptr %59, i32 0, i32 5
  %61 = load ptr, ptr %60, align 8
  %62 = getelementptr inbounds %struct.H5A_t, ptr %61, i32 0, i32 4
  %63 = load ptr, ptr %62, align 8
  %64 = load ptr, ptr %11, align 8
  %65 = getelementptr inbounds %struct.H5O_iter_wrt_t, ptr %64, i32 0, i32 1
  %66 = load ptr, ptr %65, align 8
  %67 = getelementptr inbounds %struct.H5A_t, ptr %66, i32 0, i32 4
  %68 = load ptr, ptr %67, align 8
  %69 = icmp ne ptr %63, %68
  br i1 %69, label %70, label %92

70:                                               ; preds = %58
  %71 = load ptr, ptr %7, align 8
  %72 = getelementptr inbounds %struct.H5O_mesg_t, ptr %71, i32 0, i32 5
  %73 = load ptr, ptr %72, align 8
  %74 = getelementptr inbounds %struct.H5A_t, ptr %73, i32 0, i32 4
  %75 = load ptr, ptr %74, align 8
  %76 = getelementptr inbounds %struct.H5A_shared_t, ptr %75, i32 0, i32 7
  %77 = load ptr, ptr %76, align 8
  %78 = load ptr, ptr %11, align 8
  %79 = getelementptr inbounds %struct.H5O_iter_wrt_t, ptr %78, i32 0, i32 1
  %80 = load ptr, ptr %79, align 8
  %81 = getelementptr inbounds %struct.H5A_t, ptr %80, i32 0, i32 4
  %82 = load ptr, ptr %81, align 8
  %83 = getelementptr inbounds %struct.H5A_shared_t, ptr %82, i32 0, i32 7
  %84 = load ptr, ptr %83, align 8
  %85 = load ptr, ptr %11, align 8
  %86 = getelementptr inbounds %struct.H5O_iter_wrt_t, ptr %85, i32 0, i32 1
  %87 = load ptr, ptr %86, align 8
  %88 = getelementptr inbounds %struct.H5A_t, ptr %87, i32 0, i32 4
  %89 = load ptr, ptr %88, align 8
  %90 = getelementptr inbounds %struct.H5A_shared_t, ptr %89, i32 0, i32 8
  %91 = load i64, ptr %90, align 8
  call void @llvm.memcpy.p0.p0.i64(ptr align 1 %77, ptr align 1 %84, i64 %91, i1 false)
  br label %92

92:                                               ; preds = %70, %58
  %93 = load ptr, ptr %7, align 8
  %94 = getelementptr inbounds %struct.H5O_mesg_t, ptr %93, i32 0, i32 1
  store i8 1, ptr %94, align 8
  store i8 1, ptr %13, align 1
  %95 = load ptr, ptr %11, align 8
  %96 = getelementptr inbounds %struct.H5O_iter_wrt_t, ptr %95, i32 0, i32 0
  %97 = load ptr, ptr %96, align 8
  %98 = load ptr, ptr %12, align 8
  %99 = load i8, ptr %13, align 1
  %100 = trunc i8 %99 to i1
  %101 = call i32 @H5O__chunk_unprotect(ptr noundef %97, ptr noundef %98, i1 noundef zeroext %100)
  %102 = icmp slt i32 %101, 0
  br i1 %102, label %103, label %118

103:                                              ; preds = %92
  br label %104

104:                                              ; preds = %103
  br label %105

105:                                              ; preds = %104
  br label %106

106:                                              ; preds = %105
  %107 = load i64, ptr @H5E_ATTR_g, align 8
  %108 = load i64, ptr @H5E_CANTUNPROTECT_g, align 8
  %109 = call i32 (ptr, ptr, i32, i64, i64, ptr, ...) @H5E_printf_stack(ptr noundef @.str, ptr noundef @__func__.H5O__attr_write_cb, i32 noundef 821, i64 noundef %107, i64 noundef %108, ptr noundef @.str.63)
  br label %110

110:                                              ; preds = %106
  store i8 1, ptr %15, align 1
  %111 = load i8, ptr %15, align 1
  %112 = trunc i8 %111 to i1
  %113 = zext i1 %112 to i8
  store i8 %113, ptr %15, align 1
  br label %114

114:                                              ; preds = %110
  br label %115

115:                                              ; preds = %114
  store i32 -1, ptr %14, align 4
  br label %159

116:                                              ; No predecessors!
  br label %117

117:                                              ; preds = %116
  br label %118

118:                                              ; preds = %117, %92
  store ptr null, ptr %12, align 8
  %119 = load ptr, ptr %7, align 8
  %120 = getelementptr inbounds %struct.H5O_mesg_t, ptr %119, i32 0, i32 2
  %121 = load i8, ptr %120, align 1
  %122 = zext i8 %121 to i32
  %123 = and i32 %122, 2
  %124 = icmp ne i32 %123, 0
  br i1 %124, label %125, label %154

125:                                              ; preds = %118
  %126 = load ptr, ptr %11, align 8
  %127 = getelementptr inbounds %struct.H5O_iter_wrt_t, ptr %126, i32 0, i32 0
  %128 = load ptr, ptr %127, align 8
  %129 = load ptr, ptr %6, align 8
  %130 = load ptr, ptr %11, align 8
  %131 = getelementptr inbounds %struct.H5O_iter_wrt_t, ptr %130, i32 0, i32 1
  %132 = load ptr, ptr %131, align 8
  %133 = load ptr, ptr %7, align 8
  %134 = getelementptr inbounds %struct.H5O_mesg_t, ptr %133, i32 0, i32 5
  %135 = load ptr, ptr %134, align 8
  %136 = call i32 @H5O__attr_update_shared(ptr noundef %128, ptr noundef %129, ptr noundef %132, ptr noundef %135)
  %137 = icmp slt i32 %136, 0
  br i1 %137, label %138, label %153

138:                                              ; preds = %125
  br label %139

139:                                              ; preds = %138
  br label %140

140:                                              ; preds = %139
  br label %141

141:                                              ; preds = %140
  %142 = load i64, ptr @H5E_ATTR_g, align 8
  %143 = load i64, ptr @H5E_CANTUPDATE_g, align 8
  %144 = call i32 (ptr, ptr, i32, i64, i64, ptr, ...) @H5E_printf_stack(ptr noundef @.str, ptr noundef @__func__.H5O__attr_write_cb, i32 noundef 828, i64 noundef %142, i64 noundef %143, ptr noundef @.str.64)
  br label %145

145:                                              ; preds = %141
  store i8 1, ptr %15, align 1
  %146 = load i8, ptr %15, align 1
  %147 = trunc i8 %146 to i1
  %148 = zext i1 %147 to i8
  store i8 %148, ptr %15, align 1
  br label %149

149:                                              ; preds = %145
  br label %150

150:                                              ; preds = %149
  store i32 -1, ptr %14, align 4
  br label %159

151:                                              ; No predecessors!
  br label %152

152:                                              ; preds = %151
  br label %153

153:                                              ; preds = %152, %125
  br label %154

154:                                              ; preds = %153, %118
  %155 = load ptr, ptr %9, align 8
  store i32 2, ptr %155, align 4
  %156 = load ptr, ptr %11, align 8
  %157 = getelementptr inbounds %struct.H5O_iter_wrt_t, ptr %156, i32 0, i32 2
  store i8 1, ptr %157, align 8
  store i32 1, ptr %14, align 4
  br label %158

158:                                              ; preds = %154, %5
  br label %159

159:                                              ; preds = %158, %150, %115, %55
  %160 = load ptr, ptr %12, align 8
  %161 = icmp ne ptr %160, null
  br i1 %161, label %162, label %184

162:                                              ; preds = %159
  %163 = load ptr, ptr %11, align 8
  %164 = getelementptr inbounds %struct.H5O_iter_wrt_t, ptr %163, i32 0, i32 0
  %165 = load ptr, ptr %164, align 8
  %166 = load ptr, ptr %12, align 8
  %167 = load i8, ptr %13, align 1
  %168 = trunc i8 %167 to i1
  %169 = call i32 @H5O__chunk_unprotect(ptr noundef %165, ptr noundef %166, i1 noundef zeroext %168)
  %170 = icmp slt i32 %169, 0
  br i1 %170, label %171, label %184

171:                                              ; preds = %162
  br label %172

172:                                              ; preds = %171
  br label %173

173:                                              ; preds = %172
  br label %174

174:                                              ; preds = %173
  %175 = load i64, ptr @H5E_ATTR_g, align 8
  %176 = load i64, ptr @H5E_CANTUNPROTECT_g, align 8
  %177 = call i32 (ptr, ptr, i32, i64, i64, ptr, ...) @H5E_printf_stack(ptr noundef @.str, ptr noundef @__func__.H5O__attr_write_cb, i32 noundef 843, i64 noundef %175, i64 noundef %176, ptr noundef @.str.63)
  br label %178

178:                                              ; preds = %174
  store i8 1, ptr %15, align 1
  %179 = load i8, ptr %15, align 1
  %180 = trunc i8 %179 to i1
  %181 = zext i1 %180 to i8
  store i8 %181, ptr %15, align 1
  br label %182

182:                                              ; preds = %178
  store i32 -1, ptr %14, align 4
  br label %183

183:                                              ; preds = %182
  br label %184

184:                                              ; preds = %183, %162, %159
  %185 = load i32, ptr %14, align 4
  ret i32 %185
}