; Function Attrs: nounwind uwtable
define internal range(i32 -1, 2) i32 @H5O__attr_write_cb(ptr noundef %0, ptr nocapture noundef %1, i32 %2, ptr nocapture noundef writeonly %3, ptr nocapture noundef %4) #0 {
  %6 = getelementptr inbounds i8, ptr %1, i64 24
  %7 = load ptr, ptr %6, align 8
  %8 = getelementptr inbounds i8, ptr %7, i64 96
  %9 = load ptr, ptr %8, align 8
  %10 = getelementptr inbounds i8, ptr %9, i64 8
  %11 = load ptr, ptr %10, align 8
  %12 = getelementptr inbounds i8, ptr %4, i64 8
  %13 = load ptr, ptr %12, align 8
  %14 = getelementptr inbounds i8, ptr %13, i64 96
  %15 = load ptr, ptr %14, align 8
  %16 = getelementptr inbounds i8, ptr %15, i64 8
  %17 = load ptr, ptr %16, align 8
  %18 = tail call i32 @strcmp(ptr noundef nonnull dereferenceable(1) %11, ptr noundef nonnull dereferenceable(1) %17) #11
  %19 = icmp eq i32 %18, 0
  br i1 %19, label %20, label %.thread

20:                                               ; preds = %5
  %21 = load ptr, ptr %4, align 8
  %22 = getelementptr inbounds i8, ptr %1, i64 16
  %23 = load i32, ptr %22, align 8
  %24 = tail call ptr @H5O__chunk_protect(ptr noundef %21, ptr noundef %0, i32 noundef %23) #9
  %25 = icmp eq ptr %24, null
  br i1 %25, label %26, label %30

26:                                               ; preds = %20
  %27 = load i64, ptr @H5E_ATTR_g, align 8
  %28 = load i64, ptr @H5E_CANTPROTECT_g, align 8
  %29 = tail call i32 (ptr, ptr, i32, i64, i64, ptr, ...) @H5E_printf_stack(ptr noundef nonnull @.str, ptr noundef nonnull @__func__.H5O__attr_write_cb, i32 noundef 797, i64 noundef %27, i64 noundef %28, ptr noundef nonnull @.str.62) #9
  br label %.thread

30:                                               ; preds = %20
  %31 = load ptr, ptr %6, align 8
  %32 = getelementptr inbounds i8, ptr %31, i64 96
  %33 = load ptr, ptr %32, align 8
  %34 = load ptr, ptr %12, align 8
  %35 = getelementptr inbounds i8, ptr %34, i64 96
  %36 = load ptr, ptr %35, align 8
  %.not = icmp eq ptr %33, %36
  br i1 %.not, label %44, label %37

37:                                               ; preds = %30
  %38 = getelementptr inbounds i8, ptr %33, i64 56
  %39 = load ptr, ptr %38, align 8
  %40 = getelementptr inbounds i8, ptr %36, i64 56
  %41 = load ptr, ptr %40, align 8
  %42 = getelementptr inbounds i8, ptr %36, i64 64
  %43 = load i64, ptr %42, align 8
  tail call void @llvm.memcpy.p0.p0.i64(ptr align 1 %39, ptr align 1 %41, i64 %43, i1 false)
  br label %44

44:                                               ; preds = %37, %30
  %45 = getelementptr inbounds i8, ptr %1, i64 8
  store i8 1, ptr %45, align 8
  %46 = load ptr, ptr %4, align 8
  %47 = tail call i32 @H5O__chunk_unprotect(ptr noundef %46, ptr noundef nonnull %24, i1 noundef zeroext true) #9
  %48 = icmp slt i32 %47, 0
  br i1 %48, label %65, label %49

49:                                               ; preds = %44
  %50 = getelementptr inbounds i8, ptr %1, i64 9
  %51 = load i8, ptr %50, align 1
  %52 = and i8 %51, 2
  %.not36 = icmp eq i8 %52, 0
  br i1 %.not36, label %63, label %53

53:                                               ; preds = %49
  %54 = load ptr, ptr %4, align 8
  %55 = load ptr, ptr %12, align 8
  %56 = load ptr, ptr %6, align 8
  %57 = tail call i32 @H5O__attr_update_shared(ptr noundef %54, ptr noundef %0, ptr noundef %55, ptr noundef %56)
  %58 = icmp slt i32 %57, 0
  br i1 %58, label %59, label %63

59:                                               ; preds = %53
  %60 = load i64, ptr @H5E_ATTR_g, align 8
  %61 = load i64, ptr @H5E_CANTUPDATE_g, align 8
  %62 = tail call i32 (ptr, ptr, i32, i64, i64, ptr, ...) @H5E_printf_stack(ptr noundef nonnull @.str, ptr noundef nonnull @__func__.H5O__attr_write_cb, i32 noundef 828, i64 noundef %60, i64 noundef %61, ptr noundef nonnull @.str.64) #9
  br label %.thread

63:                                               ; preds = %53, %49
  store i32 2, ptr %3, align 4
  %64 = getelementptr inbounds i8, ptr %4, i64 16
  store i8 1, ptr %64, align 8
  br label %.thread

65:                                               ; preds = %44
  %66 = load i64, ptr @H5E_ATTR_g, align 8
  %67 = load i64, ptr @H5E_CANTUNPROTECT_g, align 8
  %68 = tail call i32 (ptr, ptr, i32, i64, i64, ptr, ...) @H5E_printf_stack(ptr noundef nonnull @.str, ptr noundef nonnull @__func__.H5O__attr_write_cb, i32 noundef 821, i64 noundef %66, i64 noundef %67, ptr noundef nonnull @.str.63) #9
  %69 = load ptr, ptr %4, align 8
  %70 = tail call i32 @H5O__chunk_unprotect(ptr noundef %69, ptr noundef nonnull %24, i1 noundef zeroext true) #9
  %71 = icmp slt i32 %70, 0
  br i1 %71, label %72, label %.thread

72:                                               ; preds = %65
  %73 = load i64, ptr @H5E_ATTR_g, align 8
  %74 = load i64, ptr @H5E_CANTUNPROTECT_g, align 8
  %75 = tail call i32 (ptr, ptr, i32, i64, i64, ptr, ...) @H5E_printf_stack(ptr noundef nonnull @.str, ptr noundef nonnull @__func__.H5O__attr_write_cb, i32 noundef 843, i64 noundef %73, i64 noundef %74, ptr noundef nonnull @.str.63) #9
  br label %.thread

.thread:                                          ; preds = %5, %63, %59, %26, %72, %65
  %.1 = phi i32 [ -1, %72 ], [ -1, %65 ], [ 0, %5 ], [ 1, %63 ], [ -1, %59 ], [ -1, %26 ]
  ret i32 %.1
}